target datalayout = "e-m:e-p270:32:32-p271:32:32-p272:64:64-i64:64-i128:128-f80:128-n8:16:32:64-S128"
target triple = "x86_64-unknown-linux-gnu"

%"class.IlmThread_3_2::Semaphore" = type { ptr, %union.sem_t }
%union.sem_t = type { i64, [24 x i8] }

; Function Attrs: mustprogress uwtable
define void @_ZN13IlmThread_3_29Semaphore4waitEv(ptr noundef nonnull align 8 dereferenceable(40) %this) #0 align 2 {
entry:
  %this.addr = alloca ptr, align 8
  store ptr %this, ptr %this.addr, align 8
  %this1 = load ptr, ptr %this.addr, align 8
  br label %while.cond

while.cond:                                       ; preds = %while.body, %entry
  %_semaphore = getelementptr inbounds %"class.IlmThread_3_2::Semaphore", ptr %this1, i32 0, i32 1
  %call = call i32 @sem_wait(ptr noundef %_semaphore)
  %cmp = icmp eq i32 %call, -1
  br i1 %cmp, label %land.rhs, label %land.end

land.rhs:                                         ; preds = %while.cond
  %call2 = call ptr @__errno_location() #11
  %0 = load i32, ptr %call2, align 4
  %cmp3 = icmp eq i32 %0, 4
  br label %land.end

land.end:                                         ; preds = %land.rhs, %while.cond
  %1 = phi i1 [ false, %while.cond ], [ %cmp3, %land.rhs ]
  br i1 %1, label %while.body, label %while.end

while.body:                                       ; preds = %land.end
  br label %while.cond, !llvm.loop !4

while.end:                                        ; preds = %land.end
  ret void
}