; Function Attrs: mustprogress uwtable
define void @_ZN13IlmThread_3_29Semaphore4waitEv(ptr noundef nonnull align 8 dereferenceable(40) %this) local_unnamed_addr #0 align 2 {
entry:
  %_semaphore = getelementptr inbounds i8, ptr %this, i64 8
  br label %while.cond

while.cond:                                       ; preds = %land.rhs, %entry
  %call = tail call i32 @sem_wait(ptr noundef nonnull %_semaphore)
  %cmp = icmp eq i32 %call, -1
  br i1 %cmp, label %land.rhs, label %while.end

land.rhs:                                         ; preds = %while.cond
  %call2 = tail call ptr @__errno_location() #9
  %0 = load i32, ptr %call2, align 4
  %cmp3 = icmp eq i32 %0, 4
  br i1 %cmp3, label %while.cond, label %while.end, !llvm.loop !4

while.end:                                        ; preds = %while.cond, %land.rhs
  ret void
}